(lp1
S'appendicularian_s_shape'
p2
aS'fish_larvae_myctophids'
p3
aS'ctenophore_cydippid_no_tentacles'
p4
aS'echinoderm_seacucumber_auricularia_larva'
p5
aS'ctenophore_cestid'
p6
aS'hydromedusae_narco_dark'
p7
aS'detritus_blob'
p8
aS'echinoderm_larva_pluteus_urchin'
p9
aS'hydromedusae_shapeB'
p10
aS'protist_fuzzy_olive'
p11
aS'copepod_other'
p12
aS'copepod_calanoid_small_longantennae'
p13
aS'trichodesmium_tuft'
p14
aS'fecal_pellet'
p15
aS'tunicate_salp_chains'
p16
aS'fish_larvae_deep_body'
p17
aS'ephyra'
p18
aS'siphonophore_calycophoran_abylidae'
p19
aS'hydromedusae_other'
p20
aS'chordate_type1'
p21
aS'chaetognath_sagitta'
p22
aS'pteropod_butterfly'
p23
aS'hydromedusae_sideview_big'
p24
aS'euphausiids'
p25
aS'acantharia_protist_halo'
p26
aS'unknown_blobs_and_smudges'
p27
aS'fish_larvae_medium_body'
p28
aS'tunicate_doliolid_nurse'
p29
aS'hydromedusae_narcomedusae'
p30
aS'copepod_cyclopoid_oithona_eggs'
p31
aS'copepod_calanoid'
p32
aS'hydromedusae_narco_young'
p33
aS'decapods'
p34
aS'trichodesmium_multiple'
p35
aS'siphonophore_physonect'
p36
aS'hydromedusae_haliscera_small_sideview'
p37
aS'hydromedusae_h15'
p38
aS'hydromedusae_typeD_bell_and_tentacles'
p39
aS'hydromedusae_typeF'
p40
aS'protist_star'
p41
aS'hydromedusae_typeE'
p42
aS'tornaria_acorn_worm_larvae'
p43
aS'unknown_unclassified'
p44
aS'hydromedusae_shapeA_sideview_small'
p45
aS'copepod_calanoid_octomoms'
p46
aS'tunicate_partial'
p47
aS'echinoderm_larva_pluteus_typeC'
p48
aS'echinoderm_larva_seastar_bipinnaria'
p49
aS'fish_larvae_thin_body'
p50
aS'shrimp_zoea'
p51
aS'copepod_calanoid_flatheads'
p52
aS'chaetognath_other'
p53
aS'chaetognath_non_sagitta'
p54
aS'siphonophore_calycophoran_rocketship_young'
p55
aS'copepod_calanoid_large_side_antennatucked'
p56
aS'polychaete'
p57
aS'protist_other'
p58
aS'copepod_calanoid_eggs'
p59
aS'protist_dark_center'
p60
aS'echinoderm_larva_pluteus_brittlestar'
p61
aS'hydromedusae_solmundella'
p62
aS'siphonophore_physonect_young'
p63
aS'detritus_filamentous'
p64
aS'copepod_cyclopoid_copilia'
p65
aS'pteropod_triangle'
p66
aS'hydromedusae_haliscera'
p67
aS'shrimp-like_other'
p68
aS'copepod_cyclopoid_oithona'
p69
aS'fish_larvae_very_thin_body'
p70
aS'siphonophore_calycophoran_sphaeronectes_stem'
p71
aS'acantharia_protist_big_center'
p72
aS'hydromedusae_aglaura'
p73
aS'pteropod_theco_dev_seq'
p74
aS'stomatopod'
p75
aS'appendicularian_fritillaridae'
p76
aS'copepod_calanoid_frillyAntennae'
p77
aS'jellies_tentacles'
p78
aS'crustacean_other'
p79
aS'radiolarian_colony'
p80
aS'diatom_chain_tube'
p81
aS'shrimp_caridean'
p82
aS'diatom_chain_string'
p83
aS'invertebrate_larvae_other_B'
p84
aS'invertebrate_larvae_other_A'
p85
aS'hydromedusae_shapeA'
p86
aS'artifacts'
p87
aS'siphonophore_calycophoran_sphaeronectes'
p88
aS'copepod_calanoid_eucalanus'
p89
aS'shrimp_sergestidae'
p90
aS'siphonophore_calycophoran_sphaeronectes_young'
p91
aS'euphausiids_young'
p92
aS'amphipods'
p93
aS'trichodesmium_puff'
p94
aS'unknown_sticks'
p95
aS'hydromedusae_solmaris'
p96
aS'ctenophore_lobate'
p97
aS'trichodesmium_bowtie'
p98
aS'ctenophore_cydippid_tentacles'
p99
aS'hydromedusae_bell_and_tentacles'
p100
aS'heteropod'
p101
aS'acantharia_protist'
p102
aS'artifacts_edge'
p103
aS'hydromedusae_partial_dark'
p104
aS'tunicate_salp'
p105
aS'detritus_other'
p106
aS'tunicate_doliolid'
p107
aS'appendicularian_slight_curve'
p108
aS'siphonophore_calycophoran_rocketship_adult'
p109
aS'fish_larvae_leptocephali'
p110
aS'echinoderm_larva_seastar_brachiolaria'
p111
aS'echinoderm_larva_pluteus_early'
p112
aS'copepod_calanoid_large'
p113
aS'hydromedusae_typeD'
p114
aS'echinopluteus'
p115
aS'hydromedusae_liriope'
p116
aS'siphonophore_other_parts'
p117
aS'trochophore_larvae'
p118
aS'protist_noctiluca'
p119
aS'siphonophore_partial'
p120
aS'appendicularian_straight'
p121
aS'radiolarian_chain'
p122
a.